target datalayout = "e-m:e-p270:32:32-p271:32:32-p272:64:64-i64:64-i128:128-f80:128-n8:16:32:64-S128"
target triple = "x86_64-pc-linux-gnu"

%"struct.Yosys::RTLIL::IdString" = type { i32 }
%"class.__gnu_cxx::__normal_iterator.711" = type { ptr }
%"struct.__gnu_cxx::__ops::_Iter_comp_iter.877" = type { i8 }
%"struct.__gnu_cxx::__ops::_Iter_comp_val.878" = type { i8 }

@_ZN5Yosys5RTLIL2ID8PRIORITYE = external global %"struct.Yosys::RTLIL::IdString", align 4

; Function Attrs: mustprogress uwtable
define internal noundef zeroext i1 @_ZN9__gnu_cxx5__ops14_Iter_comp_valIZN12_GLOBAL__N_112CxxrtlWorker21dump_cell_effect_syncERSt6vectorIPKN5Yosys5RTLIL4CellESaIS9_EEEUlS9_S9_E_EclINS_17__normal_iteratorIPS9_SB_EES9_EEbT_RT0_(ptr noundef nonnull align 1 dereferenceable(1) %0, ptr %1, ptr noundef nonnull align 8 dereferenceable(8) %2) #4 align 2 {
  %4 = alloca %"class.__gnu_cxx::__normal_iterator.711", align 8
  %5 = alloca ptr, align 8
  %6 = alloca ptr, align 8
  %7 = getelementptr inbounds nuw %"class.__gnu_cxx::__normal_iterator.711", ptr %4, i32 0, i32 0
  store ptr %1, ptr %7, align 8
  store ptr %0, ptr %5, align 8, !tbaa !2591
  store ptr %2, ptr %6, align 8, !tbaa !504
  %8 = load ptr, ptr %5, align 8
  %9 = call noundef nonnull align 8 dereferenceable(8) ptr @_ZNK9__gnu_cxx17__normal_iteratorIPPKN5Yosys5RTLIL4CellESt6vectorIS5_SaIS5_EEEdeEv(ptr noundef nonnull align 8 dereferenceable(8) %4) #3
  %10 = load ptr, ptr %9, align 8, !tbaa !176
  %11 = load ptr, ptr %6, align 8, !tbaa !504
  %12 = load ptr, ptr %11, align 8, !tbaa !176
  %13 = call noundef zeroext i1 @_ZZN12_GLOBAL__N_112CxxrtlWorker21dump_cell_effect_syncERSt6vectorIPKN5Yosys5RTLIL4CellESaIS6_EEENKUlS6_S6_E_clES6_S6_(ptr noundef nonnull align 1 dereferenceable(1) %8, ptr noundef %10, ptr noundef %12)
  ret i1 %13
}

; Function Attrs: inlinehint mustprogress uwtable
define internal noundef zeroext i1 @_ZZN12_GLOBAL__N_112CxxrtlWorker21dump_cell_effect_syncERSt6vectorIPKN5Yosys5RTLIL4CellESaIS6_EEENKUlS6_S6_E_clES6_S6_(ptr noundef nonnull align 1 dereferenceable(1) %0, ptr noundef %1, ptr noundef %2) #9 align 2 {
  %4 = alloca ptr, align 8
  %5 = alloca ptr, align 8
  %6 = alloca ptr, align 8
  store ptr %0, ptr %4, align 8, !tbaa !469
  store ptr %1, ptr %5, align 8, !tbaa !176
  store ptr %2, ptr %6, align 8, !tbaa !176
  %7 = load ptr, ptr %5, align 8, !tbaa !176
  %8 = call noundef nonnull align 8 dereferenceable(40) ptr @_ZNK5Yosys5RTLIL4Cell8getParamERKNS0_8IdStringE(ptr noundef nonnull align 8 dereferenceable(192) %7, ptr noundef nonnull align 4 dereferenceable(4) @_ZN5Yosys5RTLIL2ID8PRIORITYE)
  %9 = call noundef i32 @_ZNK5Yosys5RTLIL5Const6as_intEb(ptr noundef nonnull align 8 dereferenceable(40) %8, i1 noundef zeroext false)
  %10 = load ptr, ptr %6, align 8, !tbaa !176
  %11 = call noundef nonnull align 8 dereferenceable(40) ptr @_ZNK5Yosys5RTLIL4Cell8getParamERKNS0_8IdStringE(ptr noundef nonnull align 8 dereferenceable(192) %10, ptr noundef nonnull align 4 dereferenceable(4) @_ZN5Yosys5RTLIL2ID8PRIORITYE)
  %12 = call noundef i32 @_ZNK5Yosys5RTLIL5Const6as_intEb(ptr noundef nonnull align 8 dereferenceable(40) %11, i1 noundef zeroext false)
  %13 = icmp sgt i32 %9, %12
  ret i1 %13
}

; Function Attrs: mustprogress nounwind uwtable
define linkonce_odr void @_ZN9__gnu_cxx17__normal_iteratorIPPKN5Yosys5RTLIL4CellESt6vectorIS5_SaIS5_EEEC2ERKS6_(ptr noundef nonnull align 8 dereferenceable(8) %0, ptr noundef nonnull align 8 dereferenceable(8) %1) unnamed_addr #6 comdat align 2 {
  %3 = alloca ptr, align 8
  %4 = alloca ptr, align 8
  store ptr %0, ptr %3, align 8, !tbaa !2120
  store ptr %1, ptr %4, align 8, !tbaa !2122
  %5 = load ptr, ptr %3, align 8
  %6 = getelementptr inbounds nuw %"class.__gnu_cxx::__normal_iterator.711", ptr %5, i32 0, i32 0
  %7 = load ptr, ptr %4, align 8, !tbaa !2122
  %8 = load ptr, ptr %7, align 8, !tbaa !504
  store ptr %8, ptr %6, align 8, !tbaa !2124
  ret void
}

; Function Attrs: mustprogress uwtable
define internal void @_ZSt11__push_heapIN9__gnu_cxx17__normal_iteratorIPPKN5Yosys5RTLIL4CellESt6vectorIS6_SaIS6_EEEElS6_NS0_5__ops14_Iter_comp_valIZN12_GLOBAL__N_112CxxrtlWorker21dump_cell_effect_syncERSA_EUlS6_S6_E_EEEvT_T0_SK_T1_RT2_(ptr %0, i64 noundef %1, i64 noundef %2, ptr noundef %3, ptr noundef nonnull align 1 dereferenceable(1) %4) #4 {
  %6 = alloca %"class.__gnu_cxx::__normal_iterator.711", align 8
  %7 = alloca i64, align 8
  %8 = alloca i64, align 8
  %9 = alloca ptr, align 8
  %10 = alloca ptr, align 8
  %11 = alloca i64, align 8
  %12 = alloca %"class.__gnu_cxx::__normal_iterator.711", align 8
  %13 = alloca %"class.__gnu_cxx::__normal_iterator.711", align 8
  %14 = alloca %"class.__gnu_cxx::__normal_iterator.711", align 8
  %15 = alloca %"class.__gnu_cxx::__normal_iterator.711", align 8
  %16 = getelementptr inbounds nuw %"class.__gnu_cxx::__normal_iterator.711", ptr %6, i32 0, i32 0
  store ptr %0, ptr %16, align 8
  store i64 %1, ptr %7, align 8, !tbaa !34
  store i64 %2, ptr %8, align 8, !tbaa !34
  store ptr %3, ptr %9, align 8, !tbaa !176
  store ptr %4, ptr %10, align 8, !tbaa !2591
  call void @llvm.lifetime.start.p0(i64 8, ptr %11) #3
  %17 = load i64, ptr %7, align 8, !tbaa !34
  %18 = sub nsw i64 %17, 1
  %19 = sdiv i64 %18, 2
  store i64 %19, ptr %11, align 8, !tbaa !34
  br label %20

20:                                               ; preds = %34, %5
  %21 = load i64, ptr %7, align 8, !tbaa !34
  %22 = load i64, ptr %8, align 8, !tbaa !34
  %23 = icmp sgt i64 %21, %22
  br i1 %23, label %24, label %32

24:                                               ; preds = %20
  %25 = load ptr, ptr %10, align 8, !tbaa !2591
  %26 = load i64, ptr %11, align 8, !tbaa !34
  %27 = call ptr @_ZNK9__gnu_cxx17__normal_iteratorIPPKN5Yosys5RTLIL4CellESt6vectorIS5_SaIS5_EEEplEl(ptr noundef nonnull align 8 dereferenceable(8) %6, i64 noundef %26) #3
  %28 = getelementptr inbounds nuw %"class.__gnu_cxx::__normal_iterator.711", ptr %12, i32 0, i32 0
  store ptr %27, ptr %28, align 8
  %29 = getelementptr inbounds nuw %"class.__gnu_cxx::__normal_iterator.711", ptr %12, i32 0, i32 0
  %30 = load ptr, ptr %29, align 8
  %31 = call noundef zeroext i1 @_ZN9__gnu_cxx5__ops14_Iter_comp_valIZN12_GLOBAL__N_112CxxrtlWorker21dump_cell_effect_syncERSt6vectorIPKN5Yosys5RTLIL4CellESaIS9_EEEUlS9_S9_E_EclINS_17__normal_iteratorIPS9_SB_EES9_EEbT_RT0_(ptr noundef nonnull align 1 dereferenceable(1) %25, ptr %30, ptr noundef nonnull align 8 dereferenceable(8) %9)
  br label %32

32:                                               ; preds = %24, %20
  %33 = phi i1 [ false, %20 ], [ %31, %24 ]
  br i1 %33, label %34, label %48

34:                                               ; preds = %32
  call void @llvm.lifetime.start.p0(i64 8, ptr %13) #3
  %35 = load i64, ptr %11, align 8, !tbaa !34
  %36 = call ptr @_ZNK9__gnu_cxx17__normal_iteratorIPPKN5Yosys5RTLIL4CellESt6vectorIS5_SaIS5_EEEplEl(ptr noundef nonnull align 8 dereferenceable(8) %6, i64 noundef %35) #3
  %37 = getelementptr inbounds nuw %"class.__gnu_cxx::__normal_iterator.711", ptr %13, i32 0, i32 0
  store ptr %36, ptr %37, align 8
  %38 = call noundef nonnull align 8 dereferenceable(8) ptr @_ZNK9__gnu_cxx17__normal_iteratorIPPKN5Yosys5RTLIL4CellESt6vectorIS5_SaIS5_EEEdeEv(ptr noundef nonnull align 8 dereferenceable(8) %13) #3
  %39 = load ptr, ptr %38, align 8, !tbaa !176
  call void @llvm.lifetime.start.p0(i64 8, ptr %14) #3
  %40 = load i64, ptr %7, align 8, !tbaa !34
  %41 = call ptr @_ZNK9__gnu_cxx17__normal_iteratorIPPKN5Yosys5RTLIL4CellESt6vectorIS5_SaIS5_EEEplEl(ptr noundef nonnull align 8 dereferenceable(8) %6, i64 noundef %40) #3
  %42 = getelementptr inbounds nuw %"class.__gnu_cxx::__normal_iterator.711", ptr %14, i32 0, i32 0
  store ptr %41, ptr %42, align 8
  %43 = call noundef nonnull align 8 dereferenceable(8) ptr @_ZNK9__gnu_cxx17__normal_iteratorIPPKN5Yosys5RTLIL4CellESt6vectorIS5_SaIS5_EEEdeEv(ptr noundef nonnull align 8 dereferenceable(8) %14) #3
  store ptr %39, ptr %43, align 8, !tbaa !176
  call void @llvm.lifetime.end.p0(i64 8, ptr %14) #3
  call void @llvm.lifetime.end.p0(i64 8, ptr %13) #3
  %44 = load i64, ptr %11, align 8, !tbaa !34
  store i64 %44, ptr %7, align 8, !tbaa !34
  %45 = load i64, ptr %7, align 8, !tbaa !34
  %46 = sub nsw i64 %45, 1
  %47 = sdiv i64 %46, 2
  store i64 %47, ptr %11, align 8, !tbaa !34
  br label %20, !llvm.loop !2593

48:                                               ; preds = %32
  %49 = load ptr, ptr %9, align 8, !tbaa !176
  call void @llvm.lifetime.start.p0(i64 8, ptr %15) #3
  %50 = load i64, ptr %7, align 8, !tbaa !34
  %51 = call ptr @_ZNK9__gnu_cxx17__normal_iteratorIPPKN5Yosys5RTLIL4CellESt6vectorIS5_SaIS5_EEEplEl(ptr noundef nonnull align 8 dereferenceable(8) %6, i64 noundef %50) #3
  %52 = getelementptr inbounds nuw %"class.__gnu_cxx::__normal_iterator.711", ptr %15, i32 0, i32 0
  store ptr %51, ptr %52, align 8
  %53 = call noundef nonnull align 8 dereferenceable(8) ptr @_ZNK9__gnu_cxx17__normal_iteratorIPPKN5Yosys5RTLIL4CellESt6vectorIS5_SaIS5_EEEdeEv(ptr noundef nonnull align 8 dereferenceable(8) %15) #3
  store ptr %49, ptr %53, align 8, !tbaa !176
  call void @llvm.lifetime.end.p0(i64 8, ptr %15) #3
  call void @llvm.lifetime.end.p0(i64 8, ptr %11) #3
  ret void
}

; Function Attrs: mustprogress nounwind uwtable
define internal void @_ZN9__gnu_cxx5__ops14_Iter_comp_valIZN12_GLOBAL__N_112CxxrtlWorker21dump_cell_effect_syncERSt6vectorIPKN5Yosys5RTLIL4CellESaIS9_EEEUlS9_S9_E_EC2EONS0_15_Iter_comp_iterISD_EE(ptr noundef nonnull align 1 dereferenceable(1) %0, ptr noundef nonnull align 1 dereferenceable(1) %1) unnamed_addr #6 align 2 {
  %3 = alloca ptr, align 8
  %4 = alloca ptr, align 8
  store ptr %0, ptr %3, align 8, !tbaa !2591
  store ptr %1, ptr %4, align 8, !tbaa !2586
  ret void
}

; Function Attrs: mustprogress nounwind uwtable
define linkonce_odr noundef nonnull align 8 dereferenceable(8) ptr @_ZNK9__gnu_cxx17__normal_iteratorIPPKN5Yosys5RTLIL4CellESt6vectorIS5_SaIS5_EEEdeEv(ptr noundef nonnull align 8 dereferenceable(8) %0) #6 comdat align 2 {
  %2 = alloca ptr, align 8
  store ptr %0, ptr %2, align 8, !tbaa !2120
  %3 = load ptr, ptr %2, align 8
  %4 = getelementptr inbounds nuw %"class.__gnu_cxx::__normal_iterator.711", ptr %3, i32 0, i32 0
  %5 = load ptr, ptr %4, align 8, !tbaa !2124
  ret ptr %5
}

; Function Attrs: mustprogress uwtable
define internal noundef zeroext i1 @_ZN9__gnu_cxx5__ops15_Iter_comp_iterIZN12_GLOBAL__N_112CxxrtlWorker21dump_cell_effect_syncERSt6vectorIPKN5Yosys5RTLIL4CellESaIS9_EEEUlS9_S9_E_EclINS_17__normal_iteratorIPS9_SB_EESI_EEbT_T0_(ptr noundef nonnull align 1 dereferenceable(1) %0, ptr %1, ptr %2) #4 align 2 {
  %4 = alloca %"class.__gnu_cxx::__normal_iterator.711", align 8
  %5 = alloca %"class.__gnu_cxx::__normal_iterator.711", align 8
  %6 = alloca ptr, align 8
  %7 = getelementptr inbounds nuw %"class.__gnu_cxx::__normal_iterator.711", ptr %4, i32 0, i32 0
  store ptr %1, ptr %7, align 8
  %8 = getelementptr inbounds nuw %"class.__gnu_cxx::__normal_iterator.711", ptr %5, i32 0, i32 0
  store ptr %2, ptr %8, align 8
  store ptr %0, ptr %6, align 8, !tbaa !2586
  %9 = load ptr, ptr %6, align 8
  %10 = call noundef nonnull align 8 dereferenceable(8) ptr @_ZNK9__gnu_cxx17__normal_iteratorIPPKN5Yosys5RTLIL4CellESt6vectorIS5_SaIS5_EEEdeEv(ptr noundef nonnull align 8 dereferenceable(8) %4) #3
  %11 = load ptr, ptr %10, align 8, !tbaa !176
  %12 = call noundef nonnull align 8 dereferenceable(8) ptr @_ZNK9__gnu_cxx17__normal_iteratorIPPKN5Yosys5RTLIL4CellESt6vectorIS5_SaIS5_EEEdeEv(ptr noundef nonnull align 8 dereferenceable(8) %5) #3
  %13 = load ptr, ptr %12, align 8, !tbaa !176
  %14 = call noundef zeroext i1 @_ZZN12_GLOBAL__N_112CxxrtlWorker21dump_cell_effect_syncERSt6vectorIPKN5Yosys5RTLIL4CellESaIS6_EEENKUlS6_S6_E_clES6_S6_(ptr noundef nonnull align 1 dereferenceable(1) %9, ptr noundef %11, ptr noundef %13)
  ret i1 %14
}

; Function Attrs: mustprogress nounwind uwtable
define linkonce_odr ptr @_ZNK9__gnu_cxx17__normal_iteratorIPPKN5Yosys5RTLIL4CellESt6vectorIS5_SaIS5_EEEplEl(ptr noundef nonnull align 8 dereferenceable(8) %0, i64 noundef %1) #6 comdat align 2 {
  %3 = alloca %"class.__gnu_cxx::__normal_iterator.711", align 8
  %4 = alloca ptr, align 8
  %5 = alloca i64, align 8
  %6 = alloca ptr, align 8
  store ptr %0, ptr %4, align 8, !tbaa !2120
  store i64 %1, ptr %5, align 8, !tbaa !34
  %7 = load ptr, ptr %4, align 8
  call void @llvm.lifetime.start.p0(i64 8, ptr %6) #3
  %8 = getelementptr inbounds nuw %"class.__gnu_cxx::__normal_iterator.711", ptr %7, i32 0, i32 0
  %9 = load ptr, ptr %8, align 8, !tbaa !2124
  %10 = load i64, ptr %5, align 8, !tbaa !34
  %11 = getelementptr inbounds ptr, ptr %9, i64 %10
  store ptr %11, ptr %6, align 8, !tbaa !504
  call void @_ZN9__gnu_cxx17__normal_iteratorIPPKN5Yosys5RTLIL4CellESt6vectorIS5_SaIS5_EEEC2ERKS6_(ptr noundef nonnull align 8 dereferenceable(8) %3, ptr noundef nonnull align 8 dereferenceable(8) %6) #3
  call void @llvm.lifetime.end.p0(i64 8, ptr %6) #3
  %12 = getelementptr inbounds nuw %"class.__gnu_cxx::__normal_iterator.711", ptr %3, i32 0, i32 0
  %13 = load ptr, ptr %12, align 8
  ret ptr %13
}

; Function Attrs: mustprogress uwtable
define internal void @_ZSt13__adjust_heapIN9__gnu_cxx17__normal_iteratorIPPKN5Yosys5RTLIL4CellESt6vectorIS6_SaIS6_EEEElS6_NS0_5__ops15_Iter_comp_iterIZN12_GLOBAL__N_112CxxrtlWorker21dump_cell_effect_syncERSA_EUlS6_S6_E_EEEvT_T0_SK_T1_T2_(ptr %0, i64 noundef %1, i64 noundef %2, ptr noundef %3) #4 {
  %5 = alloca %"class.__gnu_cxx::__normal_iterator.711", align 8
  %6 = alloca %"struct.__gnu_cxx::__ops::_Iter_comp_iter.877", align 1
  %7 = alloca i64, align 8
  %8 = alloca i64, align 8
  %9 = alloca ptr, align 8
  %10 = alloca i64, align 8
  %11 = alloca i64, align 8
  %12 = alloca %"class.__gnu_cxx::__normal_iterator.711", align 8
  %13 = alloca %"class.__gnu_cxx::__normal_iterator.711", align 8
  %14 = alloca %"class.__gnu_cxx::__normal_iterator.711", align 8
  %15 = alloca %"class.__gnu_cxx::__normal_iterator.711", align 8
  %16 = alloca %"class.__gnu_cxx::__normal_iterator.711", align 8
  %17 = alloca %"class.__gnu_cxx::__normal_iterator.711", align 8
  %18 = alloca %"struct.__gnu_cxx::__ops::_Iter_comp_val.878", align 1
  %19 = alloca %"class.__gnu_cxx::__normal_iterator.711", align 8
  %20 = getelementptr inbounds nuw %"class.__gnu_cxx::__normal_iterator.711", ptr %5, i32 0, i32 0
  store ptr %0, ptr %20, align 8
  store i64 %1, ptr %7, align 8, !tbaa !34
  store i64 %2, ptr %8, align 8, !tbaa !34
  store ptr %3, ptr %9, align 8, !tbaa !176
  call void @llvm.lifetime.start.p0(i64 8, ptr %10) #3
  %21 = load i64, ptr %7, align 8, !tbaa !34
  store i64 %21, ptr %10, align 8, !tbaa !34
  call void @llvm.lifetime.start.p0(i64 8, ptr %11) #3
  %22 = load i64, ptr %7, align 8, !tbaa !34
  store i64 %22, ptr %11, align 8, !tbaa !34
  br label %23

23:                                               ; preds = %48, %4
  %24 = load i64, ptr %11, align 8, !tbaa !34
  %25 = load i64, ptr %8, align 8, !tbaa !34
  %26 = sub nsw i64 %25, 1
  %27 = sdiv i64 %26, 2
  %28 = icmp slt i64 %24, %27
  br i1 %28, label %29, label %59

29:                                               ; preds = %23
  %30 = load i64, ptr %11, align 8, !tbaa !34
  %31 = add nsw i64 %30, 1
  %32 = mul nsw i64 2, %31
  store i64 %32, ptr %11, align 8, !tbaa !34
  %33 = load i64, ptr %11, align 8, !tbaa !34
  %34 = call ptr @_ZNK9__gnu_cxx17__normal_iteratorIPPKN5Yosys5RTLIL4CellESt6vectorIS5_SaIS5_EEEplEl(ptr noundef nonnull align 8 dereferenceable(8) %5, i64 noundef %33) #3
  %35 = getelementptr inbounds nuw %"class.__gnu_cxx::__normal_iterator.711", ptr %12, i32 0, i32 0
  store ptr %34, ptr %35, align 8
  %36 = load i64, ptr %11, align 8, !tbaa !34
  %37 = sub nsw i64 %36, 1
  %38 = call ptr @_ZNK9__gnu_cxx17__normal_iteratorIPPKN5Yosys5RTLIL4CellESt6vectorIS5_SaIS5_EEEplEl(ptr noundef nonnull align 8 dereferenceable(8) %5, i64 noundef %37) #3
  %39 = getelementptr inbounds nuw %"class.__gnu_cxx::__normal_iterator.711", ptr %13, i32 0, i32 0
  store ptr %38, ptr %39, align 8
  %40 = getelementptr inbounds nuw %"class.__gnu_cxx::__normal_iterator.711", ptr %12, i32 0, i32 0
  %41 = load ptr, ptr %40, align 8
  %42 = getelementptr inbounds nuw %"class.__gnu_cxx::__normal_iterator.711", ptr %13, i32 0, i32 0
  %43 = load ptr, ptr %42, align 8
  %44 = call noundef zeroext i1 @_ZN9__gnu_cxx5__ops15_Iter_comp_iterIZN12_GLOBAL__N_112CxxrtlWorker21dump_cell_effect_syncERSt6vectorIPKN5Yosys5RTLIL4CellESaIS9_EEEUlS9_S9_E_EclINS_17__normal_iteratorIPS9_SB_EESI_EEbT_T0_(ptr noundef nonnull align 1 dereferenceable(1) %6, ptr %41, ptr %43)
  br i1 %44, label %45, label %48

45:                                               ; preds = %29
  %46 = load i64, ptr %11, align 8, !tbaa !34
  %47 = add nsw i64 %46, -1
  store i64 %47, ptr %11, align 8, !tbaa !34
  br label %48

48:                                               ; preds = %45, %29
  call void @llvm.lifetime.start.p0(i64 8, ptr %14) #3
  %49 = load i64, ptr %11, align 8, !tbaa !34
  %50 = call ptr @_ZNK9__gnu_cxx17__normal_iteratorIPPKN5Yosys5RTLIL4CellESt6vectorIS5_SaIS5_EEEplEl(ptr noundef nonnull align 8 dereferenceable(8) %5, i64 noundef %49) #3
  %51 = getelementptr inbounds nuw %"class.__gnu_cxx::__normal_iterator.711", ptr %14, i32 0, i32 0
  store ptr %50, ptr %51, align 8
  %52 = call noundef nonnull align 8 dereferenceable(8) ptr @_ZNK9__gnu_cxx17__normal_iteratorIPPKN5Yosys5RTLIL4CellESt6vectorIS5_SaIS5_EEEdeEv(ptr noundef nonnull align 8 dereferenceable(8) %14) #3
  %53 = load ptr, ptr %52, align 8, !tbaa !176
  call void @llvm.lifetime.start.p0(i64 8, ptr %15) #3
  %54 = load i64, ptr %7, align 8, !tbaa !34
  %55 = call ptr @_ZNK9__gnu_cxx17__normal_iteratorIPPKN5Yosys5RTLIL4CellESt6vectorIS5_SaIS5_EEEplEl(ptr noundef nonnull align 8 dereferenceable(8) %5, i64 noundef %54) #3
  %56 = getelementptr inbounds nuw %"class.__gnu_cxx::__normal_iterator.711", ptr %15, i32 0, i32 0
  store ptr %55, ptr %56, align 8
  %57 = call noundef nonnull align 8 dereferenceable(8) ptr @_ZNK9__gnu_cxx17__normal_iteratorIPPKN5Yosys5RTLIL4CellESt6vectorIS5_SaIS5_EEEdeEv(ptr noundef nonnull align 8 dereferenceable(8) %15) #3
  store ptr %53, ptr %57, align 8, !tbaa !176
  call void @llvm.lifetime.end.p0(i64 8, ptr %15) #3
  call void @llvm.lifetime.end.p0(i64 8, ptr %14) #3
  %58 = load i64, ptr %11, align 8, !tbaa !34
  store i64 %58, ptr %7, align 8, !tbaa !34
  br label %23, !llvm.loop !2590

59:                                               ; preds = %23
  %60 = load i64, ptr %8, align 8, !tbaa !34
  %61 = and i64 %60, 1
  %62 = icmp eq i64 %61, 0
  br i1 %62, label %63, label %85

63:                                               ; preds = %59
  %64 = load i64, ptr %11, align 8, !tbaa !34
  %65 = load i64, ptr %8, align 8, !tbaa !34
  %66 = sub nsw i64 %65, 2
  %67 = sdiv i64 %66, 2
  %68 = icmp eq i64 %64, %67
  br i1 %68, label %69, label %85

69:                                               ; preds = %63
  %70 = load i64, ptr %11, align 8, !tbaa !34
  %71 = add nsw i64 %70, 1
  %72 = mul nsw i64 2, %71
  store i64 %72, ptr %11, align 8, !tbaa !34
  call void @llvm.lifetime.start.p0(i64 8, ptr %16) #3
  %73 = load i64, ptr %11, align 8, !tbaa !34
  %74 = sub nsw i64 %73, 1
  %75 = call ptr @_ZNK9__gnu_cxx17__normal_iteratorIPPKN5Yosys5RTLIL4CellESt6vectorIS5_SaIS5_EEEplEl(ptr noundef nonnull align 8 dereferenceable(8) %5, i64 noundef %74) #3
  %76 = getelementptr inbounds nuw %"class.__gnu_cxx::__normal_iterator.711", ptr %16, i32 0, i32 0
  store ptr %75, ptr %76, align 8
  %77 = call noundef nonnull align 8 dereferenceable(8) ptr @_ZNK9__gnu_cxx17__normal_iteratorIPPKN5Yosys5RTLIL4CellESt6vectorIS5_SaIS5_EEEdeEv(ptr noundef nonnull align 8 dereferenceable(8) %16) #3
  %78 = load ptr, ptr %77, align 8, !tbaa !176
  call void @llvm.lifetime.start.p0(i64 8, ptr %17) #3
  %79 = load i64, ptr %7, align 8, !tbaa !34
  %80 = call ptr @_ZNK9__gnu_cxx17__normal_iteratorIPPKN5Yosys5RTLIL4CellESt6vectorIS5_SaIS5_EEEplEl(ptr noundef nonnull align 8 dereferenceable(8) %5, i64 noundef %79) #3
  %81 = getelementptr inbounds nuw %"class.__gnu_cxx::__normal_iterator.711", ptr %17, i32 0, i32 0
  store ptr %80, ptr %81, align 8
  %82 = call noundef nonnull align 8 dereferenceable(8) ptr @_ZNK9__gnu_cxx17__normal_iteratorIPPKN5Yosys5RTLIL4CellESt6vectorIS5_SaIS5_EEEdeEv(ptr noundef nonnull align 8 dereferenceable(8) %17) #3
  store ptr %78, ptr %82, align 8, !tbaa !176
  call void @llvm.lifetime.end.p0(i64 8, ptr %17) #3
  call void @llvm.lifetime.end.p0(i64 8, ptr %16) #3
  %83 = load i64, ptr %11, align 8, !tbaa !34
  %84 = sub nsw i64 %83, 1
  store i64 %84, ptr %7, align 8, !tbaa !34
  br label %85

85:                                               ; preds = %69, %63, %59
  call void @llvm.lifetime.start.p0(i64 1, ptr %18) #3
  call void @_ZN9__gnu_cxx5__ops14_Iter_comp_valIZN12_GLOBAL__N_112CxxrtlWorker21dump_cell_effect_syncERSt6vectorIPKN5Yosys5RTLIL4CellESaIS9_EEEUlS9_S9_E_EC2EONS0_15_Iter_comp_iterISD_EE(ptr noundef nonnull align 1 dereferenceable(1) %18, ptr noundef nonnull align 1 dereferenceable(1) %6)
  call void @llvm.memcpy.p0.p0.i64(ptr align 8 %19, ptr align 8 %5, i64 8, i1 false), !tbaa.struct !2152
  %86 = load i64, ptr %7, align 8, !tbaa !34
  %87 = load i64, ptr %10, align 8, !tbaa !34
  %88 = load ptr, ptr %9, align 8, !tbaa !176
  %89 = getelementptr inbounds nuw %"class.__gnu_cxx::__normal_iterator.711", ptr %19, i32 0, i32 0
  %90 = load ptr, ptr %89, align 8
  call void @_ZSt11__push_heapIN9__gnu_cxx17__normal_iteratorIPPKN5Yosys5RTLIL4CellESt6vectorIS6_SaIS6_EEEElS6_NS0_5__ops14_Iter_comp_valIZN12_GLOBAL__N_112CxxrtlWorker21dump_cell_effect_syncERSA_EUlS6_S6_E_EEEvT_T0_SK_T1_RT2_(ptr %90, i64 noundef %86, i64 noundef %87, ptr noundef %88, ptr noundef nonnull align 1 dereferenceable(1) %18)
  call void @llvm.lifetime.end.p0(i64 1, ptr %18) #3
  call void @llvm.lifetime.end.p0(i64 8, ptr %11) #3
  call void @llvm.lifetime.end.p0(i64 8, ptr %10) #3
  ret void
}