; Function Attrs: mustprogress uwtable
define internal fastcc void @_ZSt13__adjust_heapIN9__gnu_cxx17__normal_iteratorIPPKN5Yosys5RTLIL4CellESt6vectorIS6_SaIS6_EEEElS6_NS0_5__ops15_Iter_comp_iterIZN12_GLOBAL__N_112CxxrtlWorker21dump_cell_effect_syncERSA_EUlS6_S6_E_EEEvT_T0_SK_T1_T2_(ptr captures(none) %0, i64 noundef %1, i64 noundef %2, ptr noundef %3) unnamed_addr #5 {
  %5 = add nsw i64 %2, -1
  %6 = sdiv i64 %5, 2
  %7 = icmp slt i64 %1, %6
  br i1 %7, label %.lr.ph, label %._crit_edge

.lr.ph:                                           ; preds = %4, %.lr.ph
  %.034 = phi i64 [ %spec.select, %.lr.ph ], [ %1, %4 ]
  %8 = shl i64 %.034, 1
  %9 = add i64 %8, 2
  %10 = getelementptr inbounds ptr, ptr %0, i64 %9
  %11 = or disjoint i64 %8, 1
  %12 = getelementptr inbounds ptr, ptr %0, i64 %11
  %13 = load ptr, ptr %10, align 8, !tbaa !795
  %14 = load ptr, ptr %12, align 8, !tbaa !795
  %15 = tail call noundef nonnull align 8 dereferenceable(40) ptr @_ZNK5Yosys5RTLIL4Cell8getParamERKNS0_8IdStringE(ptr noundef nonnull align 8 dereferenceable(192) %13, ptr noundef nonnull align 4 dereferenceable(4) @_ZN5Yosys5RTLIL2ID8PRIORITYE)
  %16 = tail call noundef i32 @_ZNK5Yosys5RTLIL5Const6as_intEb(ptr noundef nonnull align 8 dereferenceable(40) %15, i1 noundef zeroext false)
  %17 = tail call noundef nonnull align 8 dereferenceable(40) ptr @_ZNK5Yosys5RTLIL4Cell8getParamERKNS0_8IdStringE(ptr noundef nonnull align 8 dereferenceable(192) %14, ptr noundef nonnull align 4 dereferenceable(4) @_ZN5Yosys5RTLIL2ID8PRIORITYE)
  %18 = tail call noundef i32 @_ZNK5Yosys5RTLIL5Const6as_intEb(ptr noundef nonnull align 8 dereferenceable(40) %17, i1 noundef zeroext false)
  %19 = icmp sgt i32 %16, %18
  %spec.select = select i1 %19, i64 %11, i64 %9
  %20 = getelementptr inbounds ptr, ptr %0, i64 %spec.select
  %21 = load ptr, ptr %20, align 8, !tbaa !795
  %22 = getelementptr inbounds ptr, ptr %0, i64 %.034
  store ptr %21, ptr %22, align 8, !tbaa !795
  %23 = icmp slt i64 %spec.select, %6
  br i1 %23, label %.lr.ph, label %._crit_edge, !llvm.loop !2001

._crit_edge:                                      ; preds = %.lr.ph, %4
  %.0.lcssa = phi i64 [ %1, %4 ], [ %spec.select, %.lr.ph ]
  %24 = and i64 %2, 1
  %25 = icmp eq i64 %24, 0
  br i1 %25, label %26, label %36

26:                                               ; preds = %._crit_edge
  %27 = add nsw i64 %2, -2
  %28 = ashr exact i64 %27, 1
  %29 = icmp eq i64 %.0.lcssa, %28
  br i1 %29, label %30, label %36

30:                                               ; preds = %26
  %31 = shl nsw i64 %.0.lcssa, 1
  %32 = or disjoint i64 %31, 1
  %33 = getelementptr inbounds ptr, ptr %0, i64 %32
  %34 = load ptr, ptr %33, align 8, !tbaa !795
  %35 = getelementptr inbounds ptr, ptr %0, i64 %.0.lcssa
  store ptr %34, ptr %35, align 8, !tbaa !795
  br label %36

36:                                               ; preds = %30, %26, %._crit_edge
  %.1 = phi i64 [ %32, %30 ], [ %.0.lcssa, %26 ], [ %.0.lcssa, %._crit_edge ]
  %37 = icmp sgt i64 %.1, %1
  br i1 %37, label %.lr.ph.i, label %_ZSt11__push_heapIN9__gnu_cxx17__normal_iteratorIPPKN5Yosys5RTLIL4CellESt6vectorIS6_SaIS6_EEEElS6_NS0_5__ops14_Iter_comp_valIZN12_GLOBAL__N_112CxxrtlWorker21dump_cell_effect_syncERSA_EUlS6_S6_E_EEEvT_T0_SK_T1_RT2_.exit

.lr.ph.i:                                         ; preds = %36, %45
  %.010.i = phi i64 [ %.0911.i, %45 ], [ %.1, %36 ]
  %.0911.in.i = add nsw i64 %.010.i, -1
  %.0911.i = sdiv i64 %.0911.in.i, 2
  %38 = getelementptr inbounds ptr, ptr %0, i64 %.0911.i
  %39 = load ptr, ptr %38, align 8, !tbaa !795
  %40 = tail call noundef nonnull align 8 dereferenceable(40) ptr @_ZNK5Yosys5RTLIL4Cell8getParamERKNS0_8IdStringE(ptr noundef nonnull align 8 dereferenceable(192) %39, ptr noundef nonnull align 4 dereferenceable(4) @_ZN5Yosys5RTLIL2ID8PRIORITYE)
  %41 = tail call noundef i32 @_ZNK5Yosys5RTLIL5Const6as_intEb(ptr noundef nonnull align 8 dereferenceable(40) %40, i1 noundef zeroext false)
  %42 = tail call noundef nonnull align 8 dereferenceable(40) ptr @_ZNK5Yosys5RTLIL4Cell8getParamERKNS0_8IdStringE(ptr noundef nonnull align 8 dereferenceable(192) %3, ptr noundef nonnull align 4 dereferenceable(4) @_ZN5Yosys5RTLIL2ID8PRIORITYE)
  %43 = tail call noundef i32 @_ZNK5Yosys5RTLIL5Const6as_intEb(ptr noundef nonnull align 8 dereferenceable(40) %42, i1 noundef zeroext false)
  %44 = icmp sgt i32 %41, %43
  br i1 %44, label %45, label %_ZSt11__push_heapIN9__gnu_cxx17__normal_iteratorIPPKN5Yosys5RTLIL4CellESt6vectorIS6_SaIS6_EEEElS6_NS0_5__ops14_Iter_comp_valIZN12_GLOBAL__N_112CxxrtlWorker21dump_cell_effect_syncERSA_EUlS6_S6_E_EEEvT_T0_SK_T1_RT2_.exit

45:                                               ; preds = %.lr.ph.i
  %46 = load ptr, ptr %38, align 8, !tbaa !795
  %47 = getelementptr inbounds ptr, ptr %0, i64 %.010.i
  store ptr %46, ptr %47, align 8, !tbaa !795
  %48 = icmp sgt i64 %.0911.i, %1
  br i1 %48, label %.lr.ph.i, label %_ZSt11__push_heapIN9__gnu_cxx17__normal_iteratorIPPKN5Yosys5RTLIL4CellESt6vectorIS6_SaIS6_EEEElS6_NS0_5__ops14_Iter_comp_valIZN12_GLOBAL__N_112CxxrtlWorker21dump_cell_effect_syncERSA_EUlS6_S6_E_EEEvT_T0_SK_T1_RT2_.exit, !llvm.loop !2002

_ZSt11__push_heapIN9__gnu_cxx17__normal_iteratorIPPKN5Yosys5RTLIL4CellESt6vectorIS6_SaIS6_EEEElS6_NS0_5__ops14_Iter_comp_valIZN12_GLOBAL__N_112CxxrtlWorker21dump_cell_effect_syncERSA_EUlS6_S6_E_EEEvT_T0_SK_T1_RT2_.exit: ; preds = %.lr.ph.i, %45, %36
  %.0.lcssa.i = phi i64 [ %.1, %36 ], [ %.010.i, %.lr.ph.i ], [ %.0911.i, %45 ]
  %49 = getelementptr inbounds ptr, ptr %0, i64 %.0.lcssa.i
  store ptr %3, ptr %49, align 8, !tbaa !795
  ret void
}